target datalayout = "e-m:e-p270:32:32-p271:32:32-p272:64:64-i64:64-i128:128-f80:128-n8:16:32:64-S128"
target triple = "x86_64-pc-linux-gnu"

%struct.TS_resp_ctx = type { ptr, ptr, ptr, ptr, ptr, ptr, ptr, ptr, ptr, ptr, ptr, i32, i32, ptr, ptr, ptr, ptr, ptr, ptr, ptr, ptr, ptr, ptr, ptr }

@.str = private unnamed_addr constant [35 x i8] c"../openssl/crypto/ts/ts_rsp_sign.c\00", align 1
@__func__.TS_RESP_CTX_set_signer_cert = private unnamed_addr constant [28 x i8] c"TS_RESP_CTX_set_signer_cert\00", align 1

; Function Attrs: nounwind uwtable
define i32 @TS_RESP_CTX_set_signer_cert(ptr noundef %0, ptr noundef %1) #0 {
  %3 = alloca i32, align 4
  %4 = alloca ptr, align 8
  %5 = alloca ptr, align 8
  store ptr %0, ptr %4, align 8, !tbaa !10
  store ptr %1, ptr %5, align 8, !tbaa !54
  %6 = load ptr, ptr %5, align 8, !tbaa !54
  %7 = call i32 @X509_check_purpose(ptr noundef %6, i32 noundef 9, i32 noundef 0)
  %8 = icmp ne i32 %7, 1
  br i1 %8, label %9, label %10

9:                                                ; preds = %2
  call void @ERR_new()
  call void @ERR_set_debug(ptr noundef @.str, i32 noundef 142, ptr noundef @__func__.TS_RESP_CTX_set_signer_cert)
  call void (i32, i32, ptr, ...) @ERR_set_error(i32 noundef 47, i32 noundef 117, ptr noundef null)
  store i32 0, ptr %3, align 4
  br label %21

10:                                               ; preds = %2
  %11 = load ptr, ptr %4, align 8, !tbaa !10
  %12 = getelementptr inbounds nuw %struct.TS_resp_ctx, ptr %11, i32 0, i32 0
  %13 = load ptr, ptr %12, align 8, !tbaa !43
  call void @X509_free(ptr noundef %13)
  %14 = load ptr, ptr %5, align 8, !tbaa !54
  %15 = load ptr, ptr %4, align 8, !tbaa !10
  %16 = getelementptr inbounds nuw %struct.TS_resp_ctx, ptr %15, i32 0, i32 0
  store ptr %14, ptr %16, align 8, !tbaa !43
  %17 = load ptr, ptr %4, align 8, !tbaa !10
  %18 = getelementptr inbounds nuw %struct.TS_resp_ctx, ptr %17, i32 0, i32 0
  %19 = load ptr, ptr %18, align 8, !tbaa !43
  %20 = call i32 @X509_up_ref(ptr noundef %19)
  store i32 1, ptr %3, align 4
  br label %21

21:                                               ; preds = %10, %9
  %22 = load i32, ptr %3, align 4
  ret i32 %22
}