; Function Attrs: nounwind uwtable
define range(i32 0, 2) i32 @TS_RESP_CTX_set_signer_cert(ptr noundef captures(none) %0, ptr noundef %1) local_unnamed_addr #0 {
  %3 = tail call i32 @X509_check_purpose(ptr noundef %1, i32 noundef 9, i32 noundef 0) #9
  %.not = icmp eq i32 %3, 1
  br i1 %.not, label %5, label %4

4:                                                ; preds = %2
  tail call void @ERR_new() #9
  tail call void @ERR_set_debug(ptr noundef nonnull @.str, i32 noundef 142, ptr noundef nonnull @__func__.TS_RESP_CTX_set_signer_cert) #9
  tail call void (i32, i32, ptr, ...) @ERR_set_error(i32 noundef 47, i32 noundef 117, ptr noundef null) #9
  br label %8

5:                                                ; preds = %2
  %6 = load ptr, ptr %0, align 8, !tbaa !36
  tail call void @X509_free(ptr noundef %6) #9
  store ptr %1, ptr %0, align 8, !tbaa !36
  %7 = tail call i32 @X509_up_ref(ptr noundef %1) #9
  br label %8

8:                                                ; preds = %5, %4
  %.0 = phi i32 [ 0, %4 ], [ 1, %5 ]
  ret i32 %.0
}